target datalayout = "e-m:e-p270:32:32-p271:32:32-p272:64:64-i64:64-i128:128-f80:128-n8:16:32:64-S128"
target triple = "x86_64-pc-linux-gnu"

%struct.pull_vars_context = type { ptr, i32 }

; Function Attrs: nounwind uwtable
define dso_local ptr @pull_vars_of_level(ptr noundef %0, i32 noundef %1) #0 {
  %3 = alloca ptr, align 8
  %4 = alloca i32, align 4
  %5 = alloca %struct.pull_vars_context, align 8
  store ptr %0, ptr %3, align 8
  store i32 %1, ptr %4, align 4
  call void @llvm.lifetime.start.p0(i64 16, ptr %5) #6
  %6 = getelementptr inbounds nuw %struct.pull_vars_context, ptr %5, i32 0, i32 0
  store ptr null, ptr %6, align 8
  %7 = load i32, ptr %4, align 4
  %8 = getelementptr inbounds nuw %struct.pull_vars_context, ptr %5, i32 0, i32 1
  store i32 %7, ptr %8, align 8
  %9 = load ptr, ptr %3, align 8
  %10 = call zeroext i1 @query_or_expression_tree_walker_impl(ptr noundef %9, ptr noundef @pull_vars_walker, ptr noundef %5, i32 noundef 0)
  %11 = getelementptr inbounds nuw %struct.pull_vars_context, ptr %5, i32 0, i32 0
  %12 = load ptr, ptr %11, align 8
  call void @llvm.lifetime.end.p0(i64 16, ptr %5) #6
  ret ptr %12
}